Certificate:
    Data:
        Version: 3 (0x2)
        Serial Number: 1 (0x1)
    Signature Algorithm: sha256WithRSAEncryption
        Issuer: C=FR, ST=Radius, L=Somewhere, O=Example Inc./emailAddress=admin@example.org, CN=Example Certificate Authority
        Validity
            Not Before: Nov 24 14:16:07 2015 GMT
            Not After : Jan 23 14:16:07 2016 GMT
        Subject: C=FR, ST=Radius, O=Example Inc., CN=Example Server Certificate/emailAddress=admin@example.org
        Subject Public Key Info:
            Public Key Algorithm: rsaEncryption
                Public-Key: (2048 bit)
                Modulus:
                    00:ca:36:ff:b5:1b:24:aa:64:c6:4c:9c:05:db:f8:
                    65:f6:f8:b1:3b:b9:1b:52:f5:59:7a:41:f2:96:00:
                    3a:46:98:ac:74:7e:69:84:bf:90:c9:a2:be:51:79:
                    7e:80:bd:a9:a8:e5:e1:e0:10:5d:e3:c1:82:3b:b1:
                    12:e3:b1:23:00:23:3f:93:52:de:68:71:a8:b6:42:
                    b9:5b:51:b6:d9:09:3d:93:39:8a:7f:b1:a0:e3:d2:
                    ed:3b:0e:80:38:7e:43:36:cf:75:35:27:56:0e:6b:
                    f9:5b:7b:cd:43:95:0d:86:e5:14:c1:34:48:06:b2:
                    ed:58:1d:75:72:03:20:44:b3:0c:e6:a5:f2:d6:9f:
                    c8:b2:48:b4:05:c3:8b:d5:42:e9:96:87:1e:bd:4b:
                    04:22:27:48:49:7f:c9:a6:83:12:68:db:04:31:ea:
                    ba:93:3d:10:ee:97:e4:5b:21:ce:bc:c7:81:02:9b:
                    c8:10:b3:aa:b9:53:61:6c:a4:91:31:3e:a6:77:ff:
                    c9:07:c6:11:02:3b:f0:69:fb:00:69:67:84:28:46:
                    8a:99:0b:73:fa:6a:14:be:51:f7:34:76:04:b7:62:
                    e2:47:82:77:80:18:d9:92:21:d0:5f:8c:b1:dd:be:
                    b9:88:a6:3c:e9:94:9b:9a:dc:72:50:75:16:62:d2:
                    96:df
                Exponent: 65537 (0x10001)
        X509v3 extensions:
            X509v3 Extended Key Usage: 
                TLS Web Server Authentication
            X509v3 CRL Distribution Points: 

                Full Name:
                  URI:http://www.example.com/example_ca.crl

    Signature Algorithm: sha256WithRSAEncryption
         8f:37:aa:43:f1:50:0d:1d:68:0f:ff:89:7a:bd:69:72:e6:15:
         e2:da:59:fe:ba:de:d8:18:67:0f:98:a4:0e:3f:80:81:2a:49:
         0d:49:f4:b0:65:da:8d:a9:00:19:7f:73:c6:e3:8b:50:a9:c3:
         23:2e:65:14:cd:7d:a9:e9:7a:14:4f:a2:e8:14:40:85:12:ba:
         a1:34:f6:f6:bf:86:e1:46:a3:6a:27:bd:f3:51:bb:2f:de:2f:
         da:16:ba:cb:9e:6a:39:c8:03:b4:76:20:81:3f:df:81:f3:68:
         01:49:80:e4:c0:40:43:28:a1:4a:c1:02:1e:d3:2a:6f:3c:3e:
         51:a8:ce:2d:6c:a6:e8:94:ee:7b:e6:81:2f:6a:3f:d7:fd:9e:
         50:ff:4e:a0:b2:7f:9f:0d:d0:40:59:55:c7:62:98:19:48:52:
         70:48:70:16:81:d3:13:d3:cc:66:29:a5:55:7b:66:df:2a:ae:
         22:c8:59:0a:b9:9d:66:ec:8d:37:92:a7:2e:30:59:64:10:f5:
         d1:e8:1f:5a:77:49:69:a1:ce:9a:d6:bd:01:d4:2d:a6:55:36:
         01:6e:80:a9:05:c6:62:a7:1e:f5:c0:75:b8:bd:f0:12:7a:0c:
         f1:bd:4c:91:29:0e:15:ed:ff:a0:35:fe:bd:e0:18:50:96:bd:
         c1:e5:53:09
-----BEGIN CERTIFICATE-----
MIID2jCCAsKgAwIBAgIBATANBgkqhkiG9w0BAQsFADCBkzELMAkGA1UEBhMCRlIx
DzANBgNVBAgTBlJhZGl1czESMBAGA1UEBxMJU29tZXdoZXJlMRUwEwYDVQQKEwxF
eGFtcGxlIEluYy4xIDAeBgkqhkiG9w0BCQEWEWFkbWluQGV4YW1wbGUub3JnMSYw
JAYDVQQDEx1FeGFtcGxlIENlcnRpZmljYXRlIEF1dGhvcml0eTAeFw0xNTExMjQx
NDE2MDdaFw0xNjAxMjMxNDE2MDdaMHwxCzAJBgNVBAYTAkZSMQ8wDQYDVQQIEwZS
YWRpdXMxFTATBgNVBAoTDEV4YW1wbGUgSW5jLjEjMCEGA1UEAxMaRXhhbXBsZSBT
ZXJ2ZXIgQ2VydGlmaWNhdGUxIDAeBgkqhkiG9w0BCQEWEWFkbWluQGV4YW1wbGUu
b3JnMIIBIjANBgkqhkiG9w0BAQEFAAOCAQ8AMIIBCgKCAQEAyjb/tRskqmTGTJwF
2/hl9vixO7kbUvVZekHylgA6RpisdH5phL+QyaK+UXl+gL2pqOXh4BBd48GCO7ES
47EjACM/k1LeaHGotkK5W1G22Qk9kzmKf7Gg49LtOw6AOH5DNs91NSdWDmv5W3vN
Q5UNhuUUwTRIBrLtWB11cgMgRLMM5qXy1p/Iski0BcOL1ULplocevUsEIidISX/J
poMSaNsEMeq6kz0Q7pfkWyHOvMeBApvIELOquVNhbKSRMT6md//JB8YRAjvwafsA
aWeEKEaKmQtz+moUvlH3NHYEt2LiR4J3gBjZkiHQX4yx3b65iKY86ZSbmtxyUHUW
YtKW3wIDAQABo08wTTATBgNVHSUEDDAKBggrBgEFBQcDATA2BgNVHR8ELzAtMCug
KaAnhiVodHRwOi8vd3d3LmV4YW1wbGUuY29tL2V4YW1wbGVfY2EuY3JsMA0GCSqG
SIb3DQEBCwUAA4IBAQCPN6pD8VANHWgP/4l6vWly5hXi2ln+ut7YGGcPmKQOP4CB
KkkNSfSwZdqNqQAZf3PG44tQqcMjLmUUzX2p6XoUT6LoFECFErqhNPb2v4bhRqNq
J73zUbsv3i/aFrrLnmo5yAO0diCBP9+B82gBSYDkwEBDKKFKwQIe0ypvPD5RqM4t
bKbolO575oEvaj/X/Z5Q/06gsn+fDdBAWVXHYpgZSFJwSHAWgdMT08xmKaVVe2bf
Kq4iyFkKuZ1m7I03kqcuMFlkEPXR6B9ad0lpoc6a1r0B1C2mVTYBboCpBcZipx71
wHW4vfASegzxvUyRKQ4V7f+gNf694BhQlr3B5VMJ
-----END CERTIFICATE-----
