Certificate:
    Data:
        Version: 3 (0x2)
        Serial Number: 2 (0x2)
    Signature Algorithm: sha256WithRSAEncryption
        Issuer: C=FR, ST=Radius, L=Somewhere, O=Example Inc./emailAddress=admin@example.org, CN=Example Certificate Authority
        Validity
            Not Before: Nov 24 14:16:08 2015 GMT
            Not After : Jan 23 14:16:08 2016 GMT
        Subject: C=FR, ST=Radius, O=Example Inc., CN=user@example.org/emailAddress=user@example.org
        Subject Public Key Info:
            Public Key Algorithm: rsaEncryption
                Public-Key: (2048 bit)
                Modulus:
                    00:c0:22:4b:40:86:9b:22:0d:8e:7a:70:62:40:bc:
                    62:76:70:02:4e:b7:cb:d1:50:b0:7e:41:92:69:99:
                    c7:e5:14:b5:03:d7:0f:cb:2d:1e:b9:70:3a:18:64:
                    e5:a9:05:4a:ae:64:b4:6b:d3:9f:3f:92:e1:2b:86:
                    cf:4b:ec:99:3c:c0:cf:7d:4a:37:03:03:98:96:07:
                    21:a7:8c:08:fa:bb:e3:a4:6a:f3:d2:76:68:60:4f:
                    55:fb:0d:cf:8f:c8:b0:94:64:cb:c5:ca:4d:45:87:
                    6a:33:26:bc:85:6a:4d:95:98:65:90:74:37:5c:28:
                    7a:ed:64:63:4c:91:db:f7:fb:f5:41:24:30:5c:f5:
                    4c:6d:a6:7e:b6:0e:e0:66:c2:a7:3d:63:4c:68:2f:
                    db:5a:41:4c:52:59:bf:c5:f2:1f:3c:07:c2:22:e7:
                    c2:53:e4:94:33:cc:27:eb:d8:30:e3:53:96:e8:f6:
                    31:0e:a3:c9:f7:ce:a5:10:bf:05:78:86:b5:80:f9:
                    62:2e:45:ce:2e:35:c0:5f:12:b0:79:83:44:82:28:
                    fc:f9:a9:93:03:6f:06:f5:74:3f:50:cc:7a:06:89:
                    68:21:60:bb:a9:4f:50:88:d5:65:30:2c:ff:bf:80:
                    bb:1e:eb:7b:42:09:01:1d:94:b6:bd:69:83:a4:ce:
                    c7:23
                Exponent: 65537 (0x10001)
        X509v3 extensions:
            X509v3 Extended Key Usage: 
                TLS Web Client Authentication
            X509v3 CRL Distribution Points: 

                Full Name:
                  URI:http://www.example.com/example_ca.crl

    Signature Algorithm: sha256WithRSAEncryption
         83:da:fd:c9:f0:1b:4b:e3:9e:cb:84:d6:5c:d5:d1:db:41:51:
         e4:2d:b5:95:1a:78:e8:c3:e5:a3:cd:1f:4d:43:43:3b:fc:9a:
         3f:2c:99:0b:48:c8:6c:47:59:96:fe:2f:9e:ac:c9:73:8b:f8:
         f4:c8:7e:cb:e3:36:9f:d7:c4:9f:3b:87:49:f9:30:c9:b1:8d:
         24:ca:1f:28:38:ec:4e:17:67:ba:08:9c:6f:77:d1:2a:14:ce:
         e3:d0:84:a6:5d:87:7c:68:cb:5a:ce:32:5f:27:82:ef:7e:53:
         f6:2c:47:56:d5:b0:4a:c8:2a:49:7d:b0:f6:a0:0d:f7:37:56:
         07:58:02:85:e3:2e:33:67:a9:66:20:5b:d5:1e:2b:0f:2b:c6:
         f0:30:a0:17:8d:6c:38:7f:ff:0a:b7:cb:3c:60:23:88:a0:e1:
         68:8d:21:1a:07:83:88:de:c1:e5:b9:f5:48:48:e2:aa:e9:6b:
         17:15:c8:b8:5f:a9:4e:c3:ef:5f:c0:ca:9b:19:64:f7:f8:25:
         4e:bc:ee:26:a4:43:c1:a4:e3:33:da:5f:e8:20:32:58:12:1f:
         b2:9a:c4:18:9f:ed:c8:6a:e4:d8:78:93:fb:a5:45:ef:23:0f:
         e9:f6:84:c3:ae:9c:f7:9d:f7:3a:fe:38:d0:06:be:3e:58:b2:
         4c:ce:b9:68
-----BEGIN CERTIFICATE-----
MIIDzzCCAregAwIBAgIBAjANBgkqhkiG9w0BAQsFADCBkzELMAkGA1UEBhMCRlIx
DzANBgNVBAgTBlJhZGl1czESMBAGA1UEBxMJU29tZXdoZXJlMRUwEwYDVQQKEwxF
eGFtcGxlIEluYy4xIDAeBgkqhkiG9w0BCQEWEWFkbWluQGV4YW1wbGUub3JnMSYw
JAYDVQQDEx1FeGFtcGxlIENlcnRpZmljYXRlIEF1dGhvcml0eTAeFw0xNTExMjQx
NDE2MDhaFw0xNjAxMjMxNDE2MDhaMHExCzAJBgNVBAYTAkZSMQ8wDQYDVQQIEwZS
YWRpdXMxFTATBgNVBAoTDEV4YW1wbGUgSW5jLjEZMBcGA1UEAxQQdXNlckBleGFt
cGxlLm9yZzEfMB0GCSqGSIb3DQEJARYQdXNlckBleGFtcGxlLm9yZzCCASIwDQYJ
KoZIhvcNAQEBBQADggEPADCCAQoCggEBAMAiS0CGmyINjnpwYkC8YnZwAk63y9FQ
sH5BkmmZx+UUtQPXD8stHrlwOhhk5akFSq5ktGvTnz+S4SuGz0vsmTzAz31KNwMD
mJYHIaeMCPq746Rq89J2aGBPVfsNz4/IsJRky8XKTUWHajMmvIVqTZWYZZB0N1wo
eu1kY0yR2/f79UEkMFz1TG2mfrYO4GbCpz1jTGgv21pBTFJZv8XyHzwHwiLnwlPk
lDPMJ+vYMONTluj2MQ6jyffOpRC/BXiGtYD5Yi5Fzi41wF8SsHmDRIIo/PmpkwNv
BvV0P1DMegaJaCFgu6lPUIjVZTAs/7+Aux7re0IJAR2Utr1pg6TOxyMCAwEAAaNP
ME0wEwYDVR0lBAwwCgYIKwYBBQUHAwIwNgYDVR0fBC8wLTAroCmgJ4YlaHR0cDov
L3d3dy5leGFtcGxlLmNvbS9leGFtcGxlX2NhLmNybDANBgkqhkiG9w0BAQsFAAOC
AQEAg9r9yfAbS+Oey4TWXNXR20FR5C21lRp46MPlo80fTUNDO/yaPyyZC0jIbEdZ
lv4vnqzJc4v49Mh+y+M2n9fEnzuHSfkwybGNJMofKDjsThdnugicb3fRKhTO49CE
pl2HfGjLWs4yXyeC735T9ixHVtWwSsgqSX2w9qAN9zdWB1gCheMuM2epZiBb1R4r
DyvG8DCgF41sOH//CrfLPGAjiKDhaI0hGgeDiN7B5bn1SEjiqulrFxXIuF+pTsPv
X8DKmxlk9/glTrzuJqRDwaTjM9pf6CAyWBIfsprEGJ/tyGrk2HiT+6VF7yMP6faE
w66c9533Ov440Aa+PliyTM65aA==
-----END CERTIFICATE-----
